target datalayout = "e-m:e-p270:32:32-p271:32:32-p272:64:64-i64:64-i128:128-f80:128-n8:16:32:64-S128"
target triple = "x86_64-pc-linux-gnu"

%struct._lv_vector_draw_dsc_t = type { %struct._lv_vector_fill_dsc_t, %struct._lv_vector_stroke_dsc_t, %struct._lv_matrix_t, i32, %struct.lv_area_t }
%struct._lv_vector_fill_dsc_t = type { i32, %struct.lv_color32_t, i8, i32, %struct._lv_draw_image_dsc_t, %struct._lv_vector_gradient_t, %struct._lv_matrix_t }
%struct.lv_color32_t = type { i8, i8, i8, i8 }
%struct._lv_draw_image_dsc_t = type { %struct.lv_draw_dsc_base_t, ptr, %struct.lv_image_header_t, i32, i32, i32, i32, i32, %struct.lv_point_t, %struct.lv_color_t, i8, i8, i8, ptr, %struct.lv_area_t, i32, ptr }
%struct.lv_draw_dsc_base_t = type { ptr, i32, i32, i32, ptr, i64, ptr }
%struct.lv_image_header_t = type <{ i64, i32 }>
%struct.lv_point_t = type { i32, i32 }
%struct.lv_color_t = type { i8, i8, i8 }
%struct._lv_vector_gradient_t = type { i32, [2 x %struct.lv_gradient_stop_t], i16, float, float, float, float, float, float, float, i32 }
%struct.lv_gradient_stop_t = type { %struct.lv_color_t, i8, i8 }
%struct._lv_vector_stroke_dsc_t = type { i32, %struct.lv_color32_t, i8, float, %struct._lv_array_t, i32, i32, i16, %struct._lv_vector_gradient_t, %struct._lv_matrix_t }
%struct._lv_array_t = type { ptr, i32, i32, i32, i8 }
%struct._lv_matrix_t = type { [3 x [3 x float]] }
%struct.lv_area_t = type { i32, i32, i32, i32 }
%struct._lv_svg_render_obj = type { ptr, i32, ptr, %struct._lv_vector_draw_dsc_t, %struct._lv_matrix_t, ptr, ptr, ptr, ptr, ptr, ptr, ptr, ptr, ptr }
%struct.lv_svg_render_use_t = type { %struct._lv_svg_render_obj, float, float, ptr }

; Function Attrs: nounwind uwtable
define internal void @_destroy_use(ptr noundef %0) #0 {
  %2 = alloca ptr, align 8
  %3 = alloca ptr, align 8
  store ptr %0, ptr %2, align 8, !tbaa !3
  call void @llvm.lifetime.start.p0(i64 8, ptr %3) #8
  %4 = load ptr, ptr %2, align 8, !tbaa !3
  store ptr %4, ptr %3, align 8, !tbaa !3
  %5 = load ptr, ptr %3, align 8, !tbaa !3
  %6 = getelementptr inbounds nuw %struct.lv_svg_render_use_t, ptr %5, i32 0, i32 3
  %7 = load ptr, ptr %6, align 8, !tbaa !231
  %8 = icmp ne ptr %7, null
  br i1 %8, label %9, label %13

9:                                                ; preds = %1
  %10 = load ptr, ptr %3, align 8, !tbaa !3
  %11 = getelementptr inbounds nuw %struct.lv_svg_render_use_t, ptr %10, i32 0, i32 3
  %12 = load ptr, ptr %11, align 8, !tbaa !231
  call void @lv_free(ptr noundef %12)
  br label %13

13:                                               ; preds = %9, %1
  call void @llvm.lifetime.end.p0(i64 8, ptr %3) #8
  ret void
}